target datalayout = "e-m:e-p270:32:32-p271:32:32-p272:64:64-i64:64-i128:128-f80:128-n8:16:32:64-S128"
target triple = "x86_64-pc-linux-gnu"

%struct._GError = type { i32, i32, ptr }
%struct.GtkApi = type { i32, ptr, ptr, ptr, ptr, ptr, ptr, ptr, ptr, ptr, ptr, ptr, ptr, ptr, ptr, ptr, ptr, ptr, ptr, ptr, ptr, ptr, ptr, ptr, ptr, ptr, ptr, ptr, ptr, ptr, ptr, ptr, ptr, ptr, ptr, ptr, ptr, ptr, ptr, ptr, ptr, ptr, ptr, ptr, ptr, ptr, ptr, ptr, ptr, ptr, ptr, ptr, ptr, ptr, ptr, ptr, ptr, ptr, ptr, ptr, ptr, ptr, ptr, ptr, ptr, ptr, ptr, ptr, ptr, ptr, ptr, ptr, ptr, ptr, ptr, ptr, ptr, ptr, ptr, ptr, ptr, ptr, ptr, ptr, ptr, ptr, ptr, ptr, ptr, ptr, ptr, ptr, ptr, ptr, ptr, ptr, ptr, ptr, ptr, ptr, ptr, ptr, ptr, ptr, ptr }
%struct.XdgDesktopPortalApi = type { ptr, ptr, ptr, ptr }
%struct._GString = type { ptr, i64, i64 }
%struct.DBusCallbackHelper = type { i32, ptr, i32 }
%struct._GVariantBuilder = type { %union.anon }
%union.anon = type { %struct.anon }
%struct.anon = type { i64, ptr, [14 x i64] }

@portal = hidden global ptr null, align 8
@stderr = external global ptr, align 8
@.str = private unnamed_addr constant [50 x i8] c"!!! %s:%i Error: domain %i code %i message: \22%s\22\0A\00", align 1
@gtk = external global ptr, align 8
@.str.1 = private unnamed_addr constant [58 x i8] c"%s:%i !!! restore token is not a valid UUID string:\0A\22%s\22\0A\00", align 1
@__func__.validateToken = private unnamed_addr constant [14 x i8] c"validateToken\00", align 1
@.str.25 = private unnamed_addr constant [31 x i8] c"org.freedesktop.portal.Desktop\00", align 1
@.str.28 = private unnamed_addr constant [6 x i8] c"a{sv}\00", align 1
@.str.29 = private unnamed_addr constant [5 x i8] c"{sv}\00", align 1
@.str.30 = private unnamed_addr constant [13 x i8] c"handle_token\00", align 1
@.str.35 = private unnamed_addr constant [9 x i8] c"multiple\00", align 1
@.str.36 = private unnamed_addr constant [6 x i8] c"types\00", align 1
@.str.37 = private unnamed_addr constant [13 x i8] c"persist_mode\00", align 1
@.str.38 = private unnamed_addr constant [14 x i8] c"restore_token\00", align 1
@.str.39 = private unnamed_addr constant [14 x i8] c"SelectSources\00", align 1
@.str.40 = private unnamed_addr constant [9 x i8] c"(oa{sv})\00", align 1
@.str.41 = private unnamed_addr constant [40 x i8] c"%s:%i Failed to call SelectSources: %s\0A\00", align 1
@__func__.portalScreenCastSelectSources = private unnamed_addr constant [30 x i8] c"portalScreenCastSelectSources\00", align 1
@updateRequestPath.counter = internal global i64 0, align 8
@.str.65 = private unnamed_addr constant [15 x i8] c"awtPipewire%lu\00", align 1
@.str.66 = private unnamed_addr constant [58 x i8] c"/org/freedesktop/portal/desktop/request/%s/awtPipewire%lu\00", align 1
@.str.67 = private unnamed_addr constant [31 x i8] c"org.freedesktop.portal.Request\00", align 1
@.str.68 = private unnamed_addr constant [9 x i8] c"Response\00", align 1

; Function Attrs: nounwind uwtable
define internal void @unregisterScreenCastCallback(ptr noundef %0) #0 {
  %2 = alloca ptr, align 8
  store ptr %0, ptr %2, align 8
  %3 = load ptr, ptr %2, align 8
  %4 = getelementptr inbounds %struct.DBusCallbackHelper, ptr %3, i32 0, i32 0
  %5 = load i32, ptr %4, align 8
  %6 = icmp ne i32 %5, 0
  br i1 %6, label %7, label %17

7:                                                ; preds = %1
  %8 = load ptr, ptr @gtk, align 8
  %9 = getelementptr inbounds %struct.GtkApi, ptr %8, i32 0, i32 94
  %10 = load ptr, ptr %9, align 8
  %11 = load ptr, ptr @portal, align 8
  %12 = getelementptr inbounds %struct.XdgDesktopPortalApi, ptr %11, i32 0, i32 0
  %13 = load ptr, ptr %12, align 8
  %14 = load ptr, ptr %2, align 8
  %15 = getelementptr inbounds %struct.DBusCallbackHelper, ptr %14, i32 0, i32 0
  %16 = load i32, ptr %15, align 8
  call void %10(ptr noundef %13, i32 noundef %16)
  br label %17

17:                                               ; preds = %7, %1
  ret void
}

; Function Attrs: nounwind uwtable
define hidden void @errHandle(ptr noundef %0, ptr noundef %1, i32 noundef %2) #0 {
  %4 = alloca ptr, align 8
  %5 = alloca ptr, align 8
  %6 = alloca i32, align 4
  store ptr %0, ptr %4, align 8
  store ptr %1, ptr %5, align 8
  store i32 %2, ptr %6, align 4
  %7 = load ptr, ptr %4, align 8
  %8 = icmp ne ptr %7, null
  br i1 %8, label %9, label %23

9:                                                ; preds = %3
  %10 = load ptr, ptr @stderr, align 8
  %11 = load ptr, ptr %5, align 8
  %12 = load i32, ptr %6, align 4
  %13 = load ptr, ptr %4, align 8
  %14 = getelementptr inbounds %struct._GError, ptr %13, i32 0, i32 0
  %15 = load i32, ptr %14, align 8
  %16 = load ptr, ptr %4, align 8
  %17 = getelementptr inbounds %struct._GError, ptr %16, i32 0, i32 1
  %18 = load i32, ptr %17, align 4
  %19 = load ptr, ptr %4, align 8
  %20 = getelementptr inbounds %struct._GError, ptr %19, i32 0, i32 2
  %21 = load ptr, ptr %20, align 8
  %22 = call i32 (ptr, ptr, ...) @fprintf(ptr noundef %10, ptr noundef @.str, ptr noundef %11, i32 noundef %12, i32 noundef %15, i32 noundef %18, ptr noundef %21) #7
  br label %23

23:                                               ; preds = %9, %3
  %24 = load ptr, ptr %4, align 8
  %25 = icmp ne ptr %24, null
  br i1 %25, label %26, label %31

26:                                               ; preds = %23
  %27 = load ptr, ptr @gtk, align 8
  %28 = getelementptr inbounds %struct.GtkApi, ptr %27, i32 0, i32 98
  %29 = load ptr, ptr %28, align 8
  %30 = load ptr, ptr %4, align 8
  call void %29(ptr noundef %30)
  br label %31

31:                                               ; preds = %26, %23
  store ptr null, ptr %4, align 8
  ret void
}

; Function Attrs: nounwind uwtable
define hidden i32 @validateToken(ptr noundef %0) #0 {
  %2 = alloca i32, align 4
  %3 = alloca ptr, align 8
  %4 = alloca i32, align 4
  store ptr %0, ptr %3, align 8
  %5 = load ptr, ptr %3, align 8
  %6 = icmp ne ptr %5, null
  br i1 %6, label %8, label %7

7:                                                ; preds = %1
  store i32 0, ptr %2, align 4
  br label %20

8:                                                ; preds = %1
  %9 = load ptr, ptr @gtk, align 8
  %10 = getelementptr inbounds %struct.GtkApi, ptr %9, i32 0, i32 89
  %11 = load ptr, ptr %10, align 8
  %12 = load ptr, ptr %3, align 8
  %13 = call i32 %11(ptr noundef %12)
  store i32 %13, ptr %4, align 4
  %14 = load i32, ptr %4, align 4
  %15 = icmp ne i32 %14, 0
  br i1 %15, label %18, label %16

16:                                               ; preds = %8
  %17 = load ptr, ptr %3, align 8
  call void (ptr, ...) @debug_screencast(ptr noundef @.str.1, ptr noundef @__func__.validateToken, i32 noundef 65, ptr noundef %17)
  br label %18

18:                                               ; preds = %16, %8
  %19 = load i32, ptr %4, align 4
  store i32 %19, ptr %2, align 4
  br label %20

20:                                               ; preds = %18, %7
  %21 = load i32, ptr %2, align 4
  ret i32 %21
}

; Function Attrs: nounwind uwtable
define internal void @registerScreenCastCallback(ptr noundef %0, ptr noundef %1, ptr noundef %2) #0 {
  %4 = alloca ptr, align 8
  %5 = alloca ptr, align 8
  %6 = alloca ptr, align 8
  store ptr %0, ptr %4, align 8
  store ptr %1, ptr %5, align 8
  store ptr %2, ptr %6, align 8
  %7 = load ptr, ptr @gtk, align 8
  %8 = getelementptr inbounds %struct.GtkApi, ptr %7, i32 0, i32 93
  %9 = load ptr, ptr %8, align 8
  %10 = load ptr, ptr @portal, align 8
  %11 = getelementptr inbounds %struct.XdgDesktopPortalApi, ptr %10, i32 0, i32 0
  %12 = load ptr, ptr %11, align 8
  %13 = load ptr, ptr %4, align 8
  %14 = load ptr, ptr %6, align 8
  %15 = load ptr, ptr %5, align 8
  %16 = call i32 %9(ptr noundef %12, ptr noundef @.str.25, ptr noundef @.str.67, ptr noundef @.str.68, ptr noundef %13, ptr noundef null, i32 noundef 1, ptr noundef %14, ptr noundef %15, ptr noundef null)
  %17 = load ptr, ptr %5, align 8
  %18 = getelementptr inbounds %struct.DBusCallbackHelper, ptr %17, i32 0, i32 0
  store i32 %16, ptr %18, align 8
  ret void
}

; Function Attrs: nounwind uwtable
define internal void @updateRequestPath(ptr noundef %0, ptr noundef %1) #0 {
  %3 = alloca ptr, align 8
  %4 = alloca ptr, align 8
  %5 = alloca ptr, align 8
  %6 = alloca ptr, align 8
  store ptr %0, ptr %3, align 8
  store ptr %1, ptr %4, align 8
  %7 = load i64, ptr @updateRequestPath.counter, align 8
  %8 = add i64 %7, 1
  store i64 %8, ptr @updateRequestPath.counter, align 8
  %9 = load ptr, ptr @gtk, align 8
  %10 = getelementptr inbounds %struct.GtkApi, ptr %9, i32 0, i32 83
  %11 = load ptr, ptr %10, align 8
  %12 = call ptr %11(ptr noundef null)
  store ptr %12, ptr %5, align 8
  %13 = load ptr, ptr @gtk, align 8
  %14 = getelementptr inbounds %struct.GtkApi, ptr %13, i32 0, i32 88
  %15 = load ptr, ptr %14, align 8
  %16 = load ptr, ptr %5, align 8
  %17 = load i64, ptr @updateRequestPath.counter, align 8
  %18 = call ptr (ptr, ptr, ...) %15(ptr noundef %16, ptr noundef @.str.65, i64 noundef %17)
  %19 = load ptr, ptr %5, align 8
  %20 = getelementptr inbounds %struct._GString, ptr %19, i32 0, i32 0
  %21 = load ptr, ptr %20, align 8
  %22 = load ptr, ptr %4, align 8
  store ptr %21, ptr %22, align 8
  %23 = load ptr, ptr @gtk, align 8
  %24 = getelementptr inbounds %struct.GtkApi, ptr %23, i32 0, i32 86
  %25 = load ptr, ptr %24, align 8
  %26 = load ptr, ptr %5, align 8
  %27 = call ptr %25(ptr noundef %26, i32 noundef 0)
  %28 = load ptr, ptr @gtk, align 8
  %29 = getelementptr inbounds %struct.GtkApi, ptr %28, i32 0, i32 83
  %30 = load ptr, ptr %29, align 8
  %31 = call ptr %30(ptr noundef null)
  store ptr %31, ptr %6, align 8
  %32 = load ptr, ptr @gtk, align 8
  %33 = getelementptr inbounds %struct.GtkApi, ptr %32, i32 0, i32 88
  %34 = load ptr, ptr %33, align 8
  %35 = load ptr, ptr %6, align 8
  %36 = load ptr, ptr @portal, align 8
  %37 = getelementptr inbounds %struct.XdgDesktopPortalApi, ptr %36, i32 0, i32 2
  %38 = load ptr, ptr %37, align 8
  %39 = load i64, ptr @updateRequestPath.counter, align 8
  %40 = call ptr (ptr, ptr, ...) %34(ptr noundef %35, ptr noundef @.str.66, ptr noundef %38, i64 noundef %39)
  %41 = load ptr, ptr %6, align 8
  %42 = getelementptr inbounds %struct._GString, ptr %41, i32 0, i32 0
  %43 = load ptr, ptr %42, align 8
  %44 = load ptr, ptr %3, align 8
  store ptr %43, ptr %44, align 8
  %45 = load ptr, ptr @gtk, align 8
  %46 = getelementptr inbounds %struct.GtkApi, ptr %45, i32 0, i32 86
  %47 = load ptr, ptr %46, align 8
  %48 = load ptr, ptr %6, align 8
  %49 = call ptr %47(ptr noundef %48, i32 noundef 0)
  ret void
}

; Function Attrs: nounwind uwtable
define hidden i32 @portalScreenCastSelectSources(ptr noundef %0) #0 {
  %2 = alloca ptr, align 8
  %3 = alloca ptr, align 8
  %4 = alloca ptr, align 8
  %5 = alloca ptr, align 8
  %6 = alloca %struct.DBusCallbackHelper, align 8
  %7 = alloca %struct._GVariantBuilder, align 8
  %8 = alloca ptr, align 8
  store ptr %0, ptr %2, align 8
  store ptr null, ptr %3, align 8
  store ptr null, ptr %4, align 8
  store ptr null, ptr %5, align 8
  call void @llvm.memset.p0.i64(ptr align 8 %6, i8 0, i64 24, i1 false)
  call void @updateRequestPath(ptr noundef %4, ptr noundef %5)
  %9 = load ptr, ptr %4, align 8
  call void @registerScreenCastCallback(ptr noundef %9, ptr noundef %6, ptr noundef @callbackScreenCastSelectSources)
  %10 = load ptr, ptr @gtk, align 8
  %11 = getelementptr inbounds %struct.GtkApi, ptr %10, i32 0, i32 78
  %12 = load ptr, ptr %11, align 8
  call void %12(ptr noundef %7, ptr noundef @.str.28)
  %13 = load ptr, ptr @gtk, align 8
  %14 = getelementptr inbounds %struct.GtkApi, ptr %13, i32 0, i32 79
  %15 = load ptr, ptr %14, align 8
  %16 = load ptr, ptr @gtk, align 8
  %17 = getelementptr inbounds %struct.GtkApi, ptr %16, i32 0, i32 69
  %18 = load ptr, ptr %17, align 8
  %19 = load ptr, ptr %5, align 8
  %20 = call ptr %18(ptr noundef %19)
  call void (ptr, ptr, ...) %15(ptr noundef %7, ptr noundef @.str.29, ptr noundef @.str.30, ptr noundef %20)
  %21 = load ptr, ptr @gtk, align 8
  %22 = getelementptr inbounds %struct.GtkApi, ptr %21, i32 0, i32 79
  %23 = load ptr, ptr %22, align 8
  %24 = load ptr, ptr @gtk, align 8
  %25 = getelementptr inbounds %struct.GtkApi, ptr %24, i32 0, i32 70
  %26 = load ptr, ptr %25, align 8
  %27 = call ptr %26(i32 noundef 1)
  call void (ptr, ptr, ...) %23(ptr noundef %7, ptr noundef @.str.29, ptr noundef @.str.35, ptr noundef %27)
  %28 = load ptr, ptr @gtk, align 8
  %29 = getelementptr inbounds %struct.GtkApi, ptr %28, i32 0, i32 79
  %30 = load ptr, ptr %29, align 8
  %31 = load ptr, ptr @gtk, align 8
  %32 = getelementptr inbounds %struct.GtkApi, ptr %31, i32 0, i32 71
  %33 = load ptr, ptr %32, align 8
  %34 = call ptr %33(i32 noundef 1)
  call void (ptr, ptr, ...) %30(ptr noundef %7, ptr noundef @.str.29, ptr noundef @.str.36, ptr noundef %34)
  %35 = load ptr, ptr @gtk, align 8
  %36 = getelementptr inbounds %struct.GtkApi, ptr %35, i32 0, i32 79
  %37 = load ptr, ptr %36, align 8
  %38 = load ptr, ptr @gtk, align 8
  %39 = getelementptr inbounds %struct.GtkApi, ptr %38, i32 0, i32 71
  %40 = load ptr, ptr %39, align 8
  %41 = call ptr %40(i32 noundef 2)
  call void (ptr, ptr, ...) %37(ptr noundef %7, ptr noundef @.str.29, ptr noundef @.str.37, ptr noundef %41)
  %42 = load ptr, ptr %2, align 8
  %43 = call i32 @validateToken(ptr noundef %42)
  %44 = icmp ne i32 %43, 0
  br i1 %44, label %45, label %54

45:                                               ; preds = %1
  %46 = load ptr, ptr @gtk, align 8
  %47 = getelementptr inbounds %struct.GtkApi, ptr %46, i32 0, i32 79
  %48 = load ptr, ptr %47, align 8
  %49 = load ptr, ptr @gtk, align 8
  %50 = getelementptr inbounds %struct.GtkApi, ptr %49, i32 0, i32 69
  %51 = load ptr, ptr %50, align 8
  %52 = load ptr, ptr %2, align 8
  %53 = call ptr %51(ptr noundef %52)
  call void (ptr, ptr, ...) %48(ptr noundef %7, ptr noundef @.str.29, ptr noundef @.str.38, ptr noundef %53)
  br label %54

54:                                               ; preds = %45, %1
  %55 = load ptr, ptr @gtk, align 8
  %56 = getelementptr inbounds %struct.GtkApi, ptr %55, i32 0, i32 67
  %57 = load ptr, ptr %56, align 8
  %58 = load ptr, ptr @portal, align 8
  %59 = getelementptr inbounds %struct.XdgDesktopPortalApi, ptr %58, i32 0, i32 1
  %60 = load ptr, ptr %59, align 8
  %61 = load ptr, ptr @gtk, align 8
  %62 = getelementptr inbounds %struct.GtkApi, ptr %61, i32 0, i32 68
  %63 = load ptr, ptr %62, align 8
  %64 = load ptr, ptr @portal, align 8
  %65 = getelementptr inbounds %struct.XdgDesktopPortalApi, ptr %64, i32 0, i32 3
  %66 = load ptr, ptr %65, align 8
  %67 = call ptr (ptr, ...) %63(ptr noundef @.str.40, ptr noundef %66, ptr noundef %7)
  %68 = call ptr %57(ptr noundef %60, ptr noundef @.str.39, ptr noundef %67, i32 noundef 0, i32 noundef -1, ptr noundef null, ptr noundef %3)
  store ptr %68, ptr %8, align 8
  %69 = load ptr, ptr %3, align 8
  %70 = icmp ne ptr %69, null
  br i1 %70, label %71, label %76

71:                                               ; preds = %54
  %72 = load ptr, ptr %3, align 8
  %73 = getelementptr inbounds %struct._GError, ptr %72, i32 0, i32 2
  %74 = load ptr, ptr %73, align 8
  call void (ptr, ...) @debug_screencast(ptr noundef @.str.41, ptr noundef @__func__.portalScreenCastSelectSources, i32 noundef 552, ptr noundef %74)
  %75 = load ptr, ptr %3, align 8
  call void @errHandle(ptr noundef %75, ptr noundef @__func__.portalScreenCastSelectSources, i32 noundef 553)
  br label %88

76:                                               ; preds = %54
  br label %77

77:                                               ; preds = %82, %76
  %78 = getelementptr inbounds %struct.DBusCallbackHelper, ptr %6, i32 0, i32 2
  %79 = load i32, ptr %78, align 8
  %80 = icmp ne i32 %79, 0
  %81 = xor i1 %80, true
  br i1 %81, label %82, label %87

82:                                               ; preds = %77
  %83 = load ptr, ptr @gtk, align 8
  %84 = getelementptr inbounds %struct.GtkApi, ptr %83, i32 0, i32 97
  %85 = load ptr, ptr %84, align 8
  %86 = call i32 %85(ptr noundef null, i32 noundef 1)
  br label %77, !llvm.loop !9

87:                                               ; preds = %77
  br label %88

88:                                               ; preds = %87, %71
  call void @unregisterScreenCastCallback(ptr noundef %6)
  %89 = load ptr, ptr %8, align 8
  %90 = icmp ne ptr %89, null
  br i1 %90, label %91, label %96

91:                                               ; preds = %88
  %92 = load ptr, ptr @gtk, align 8
  %93 = getelementptr inbounds %struct.GtkApi, ptr %92, i32 0, i32 77
  %94 = load ptr, ptr %93, align 8
  %95 = load ptr, ptr %8, align 8
  call void %94(ptr noundef %95)
  br label %96

96:                                               ; preds = %91, %88
  %97 = load ptr, ptr %4, align 8
  call void @free(ptr noundef %97) #7
  %98 = load ptr, ptr %5, align 8
  call void @free(ptr noundef %98) #7
  %99 = getelementptr inbounds %struct.DBusCallbackHelper, ptr %6, i32 0, i32 1
  %100 = load ptr, ptr %99, align 8
  %101 = icmp ne ptr %100, null
  %102 = zext i1 %101 to i32
  ret i32 %102
}