; Function Attrs: nounwind uwtable
define hidden range(i32 0, 2) i32 @portalScreenCastSelectSources(ptr noundef %0) local_unnamed_addr #0 {
  %2 = alloca ptr, align 8
  %3 = alloca %struct.DBusCallbackHelper, align 8
  %4 = alloca %struct._GVariantBuilder, align 8
  store ptr null, ptr %2, align 8
  call void @llvm.memset.p0.i64(ptr noundef nonnull align 8 dereferenceable(24) %3, i8 0, i64 24, i1 false)
  %5 = load i64, ptr @updateRequestPath.counter, align 8
  %6 = add i64 %5, 1
  store i64 %6, ptr @updateRequestPath.counter, align 8
  %7 = load ptr, ptr @gtk, align 8
  %8 = getelementptr inbounds i8, ptr %7, i64 664
  %9 = load ptr, ptr %8, align 8
  %10 = tail call ptr %9(ptr noundef null) #9
  %11 = load ptr, ptr @gtk, align 8
  %12 = getelementptr inbounds i8, ptr %11, i64 704
  %13 = load ptr, ptr %12, align 8
  %14 = load i64, ptr @updateRequestPath.counter, align 8
  %15 = tail call ptr (ptr, ptr, ...) %13(ptr noundef %10, ptr noundef nonnull @.str.65, i64 noundef %14) #9
  %16 = load ptr, ptr %10, align 8
  %17 = load ptr, ptr @gtk, align 8
  %18 = getelementptr inbounds i8, ptr %17, i64 688
  %19 = load ptr, ptr %18, align 8
  %20 = tail call ptr %19(ptr noundef nonnull %10, i32 noundef 0) #9
  %21 = load ptr, ptr @gtk, align 8
  %22 = getelementptr inbounds i8, ptr %21, i64 664
  %23 = load ptr, ptr %22, align 8
  %24 = tail call ptr %23(ptr noundef null) #9
  %25 = load ptr, ptr @gtk, align 8
  %26 = getelementptr inbounds i8, ptr %25, i64 704
  %27 = load ptr, ptr %26, align 8
  %28 = load ptr, ptr @portal, align 8
  %29 = getelementptr inbounds i8, ptr %28, i64 16
  %30 = load ptr, ptr %29, align 8
  %31 = load i64, ptr @updateRequestPath.counter, align 8
  %32 = tail call ptr (ptr, ptr, ...) %27(ptr noundef %24, ptr noundef nonnull @.str.66, ptr noundef %30, i64 noundef %31) #9
  %33 = load ptr, ptr %24, align 8
  %34 = load ptr, ptr @gtk, align 8
  %35 = getelementptr inbounds i8, ptr %34, i64 688
  %36 = load ptr, ptr %35, align 8
  %37 = tail call ptr %36(ptr noundef nonnull %24, i32 noundef 0) #9
  %38 = load ptr, ptr @gtk, align 8
  %39 = getelementptr inbounds i8, ptr %38, i64 744
  %40 = load ptr, ptr %39, align 8
  %41 = load ptr, ptr @portal, align 8
  %42 = load ptr, ptr %41, align 8
  %43 = call i32 %40(ptr noundef %42, ptr noundef nonnull @.str.25, ptr noundef nonnull @.str.67, ptr noundef nonnull @.str.68, ptr noundef %33, ptr noundef null, i32 noundef 1, ptr noundef nonnull @callbackScreenCastSelectSources, ptr noundef nonnull %3, ptr noundef null) #9
  store i32 %43, ptr %3, align 8
  %44 = load ptr, ptr @gtk, align 8
  %45 = getelementptr inbounds i8, ptr %44, i64 624
  %46 = load ptr, ptr %45, align 8
  call void %46(ptr noundef nonnull %4, ptr noundef nonnull @.str.28) #9
  %47 = load ptr, ptr @gtk, align 8
  %48 = getelementptr inbounds i8, ptr %47, i64 632
  %49 = load ptr, ptr %48, align 8
  %50 = getelementptr inbounds i8, ptr %47, i64 552
  %51 = load ptr, ptr %50, align 8
  %52 = call ptr %51(ptr noundef %16) #9
  call void (ptr, ptr, ...) %49(ptr noundef nonnull %4, ptr noundef nonnull @.str.29, ptr noundef nonnull @.str.30, ptr noundef %52) #9
  %53 = load ptr, ptr @gtk, align 8
  %54 = getelementptr inbounds i8, ptr %53, i64 632
  %55 = load ptr, ptr %54, align 8
  %56 = getelementptr inbounds i8, ptr %53, i64 560
  %57 = load ptr, ptr %56, align 8
  %58 = call ptr %57(i32 noundef 1) #9
  call void (ptr, ptr, ...) %55(ptr noundef nonnull %4, ptr noundef nonnull @.str.29, ptr noundef nonnull @.str.35, ptr noundef %58) #9
  %59 = load ptr, ptr @gtk, align 8
  %60 = getelementptr inbounds i8, ptr %59, i64 632
  %61 = load ptr, ptr %60, align 8
  %62 = getelementptr inbounds i8, ptr %59, i64 568
  %63 = load ptr, ptr %62, align 8
  %64 = call ptr %63(i32 noundef 1) #9
  call void (ptr, ptr, ...) %61(ptr noundef nonnull %4, ptr noundef nonnull @.str.29, ptr noundef nonnull @.str.36, ptr noundef %64) #9
  %65 = load ptr, ptr @gtk, align 8
  %66 = getelementptr inbounds i8, ptr %65, i64 632
  %67 = load ptr, ptr %66, align 8
  %68 = getelementptr inbounds i8, ptr %65, i64 568
  %69 = load ptr, ptr %68, align 8
  %70 = call ptr %69(i32 noundef 2) #9
  call void (ptr, ptr, ...) %67(ptr noundef nonnull %4, ptr noundef nonnull @.str.29, ptr noundef nonnull @.str.37, ptr noundef %70) #9
  %.not.i = icmp eq ptr %0, null
  br i1 %.not.i, label %validateToken.exit.thread, label %71

71:                                               ; preds = %1
  %72 = load ptr, ptr @gtk, align 8
  %73 = getelementptr inbounds i8, ptr %72, i64 712
  %74 = load ptr, ptr %73, align 8
  %75 = call i32 %74(ptr noundef nonnull %0) #9
  %.not6.i = icmp eq i32 %75, 0
  br i1 %.not6.i, label %76, label %validateToken.exit

76:                                               ; preds = %71
  call void (ptr, ...) @debug_screencast(ptr noundef nonnull @.str.1, ptr noundef nonnull @__func__.validateToken, i32 noundef 65, ptr noundef nonnull %0) #9
  br label %validateToken.exit.thread

validateToken.exit:                               ; preds = %71
  %77 = load ptr, ptr @gtk, align 8
  %78 = getelementptr inbounds i8, ptr %77, i64 632
  %79 = load ptr, ptr %78, align 8
  %80 = getelementptr inbounds i8, ptr %77, i64 552
  %81 = load ptr, ptr %80, align 8
  %82 = call ptr %81(ptr noundef nonnull %0) #9
  call void (ptr, ptr, ...) %79(ptr noundef nonnull %4, ptr noundef nonnull @.str.29, ptr noundef nonnull @.str.38, ptr noundef %82) #9
  br label %validateToken.exit.thread

validateToken.exit.thread:                        ; preds = %76, %1, %validateToken.exit
  %83 = load ptr, ptr @gtk, align 8
  %84 = getelementptr inbounds i8, ptr %83, i64 536
  %85 = load ptr, ptr %84, align 8
  %86 = load ptr, ptr @portal, align 8
  %87 = getelementptr inbounds i8, ptr %86, i64 8
  %88 = load ptr, ptr %87, align 8
  %89 = getelementptr inbounds i8, ptr %83, i64 544
  %90 = load ptr, ptr %89, align 8
  %91 = getelementptr inbounds i8, ptr %86, i64 24
  %92 = load ptr, ptr %91, align 8
  %93 = call ptr (ptr, ...) %90(ptr noundef nonnull @.str.40, ptr noundef %92, ptr noundef nonnull %4) #9
  %94 = call ptr %85(ptr noundef %88, ptr noundef nonnull @.str.39, ptr noundef %93, i32 noundef 0, i32 noundef -1, ptr noundef null, ptr noundef nonnull %2) #9
  %95 = load ptr, ptr %2, align 8
  %.not5 = icmp eq ptr %95, null
  br i1 %.not5, label %.preheader, label %98

.preheader:                                       ; preds = %validateToken.exit.thread
  %96 = getelementptr inbounds i8, ptr %3, i64 16
  %97 = load i32, ptr %96, align 8
  %.not615 = icmp eq i32 %97, 0
  br i1 %.not615, label %.lr.ph, label %errHandle.exit

98:                                               ; preds = %validateToken.exit.thread
  %99 = getelementptr inbounds i8, ptr %95, i64 8
  %100 = load ptr, ptr %99, align 8
  call void (ptr, ...) @debug_screencast(ptr noundef nonnull @.str.41, ptr noundef nonnull @__func__.portalScreenCastSelectSources, i32 noundef 552, ptr noundef %100) #9
  %101 = load ptr, ptr %2, align 8
  %.not.i8 = icmp eq ptr %101, null
  br i1 %.not.i8, label %errHandle.exit, label %102

102:                                              ; preds = %98
  %103 = load ptr, ptr @stderr, align 8
  %104 = load i32, ptr %101, align 8
  %105 = getelementptr inbounds i8, ptr %101, i64 4
  %106 = load i32, ptr %105, align 4
  %107 = getelementptr inbounds i8, ptr %101, i64 8
  %108 = load ptr, ptr %107, align 8
  %109 = call i32 (ptr, ptr, ...) @fprintf(ptr noundef %103, ptr noundef nonnull @.str, ptr noundef nonnull @__func__.portalScreenCastSelectSources, i32 noundef 553, i32 noundef %104, i32 noundef %106, ptr noundef %108) #8
  %110 = load ptr, ptr @gtk, align 8
  %111 = getelementptr inbounds i8, ptr %110, i64 784
  %112 = load ptr, ptr %111, align 8
  call void %112(ptr noundef nonnull %101) #9
  br label %errHandle.exit

.lr.ph:                                           ; preds = %.preheader, %.lr.ph
  %113 = load ptr, ptr @gtk, align 8
  %114 = getelementptr inbounds i8, ptr %113, i64 776
  %115 = load ptr, ptr %114, align 8
  %116 = call i32 %115(ptr noundef null, i32 noundef 1) #9
  %117 = load i32, ptr %96, align 8
  %.not6 = icmp eq i32 %117, 0
  br i1 %.not6, label %.lr.ph, label %errHandle.exit, !llvm.loop !9

errHandle.exit:                                   ; preds = %.lr.ph, %.preheader, %102, %98
  %.val = load i32, ptr %3, align 8
  %.not.i9 = icmp eq i32 %.val, 0
  br i1 %.not.i9, label %unregisterScreenCastCallback.exit, label %118

118:                                              ; preds = %errHandle.exit
  %119 = load ptr, ptr @gtk, align 8
  %120 = getelementptr inbounds i8, ptr %119, i64 752
  %121 = load ptr, ptr %120, align 8
  %122 = load ptr, ptr @portal, align 8
  %123 = load ptr, ptr %122, align 8
  call void %121(ptr noundef %123, i32 noundef %.val) #9
  br label %unregisterScreenCastCallback.exit

unregisterScreenCastCallback.exit:                ; preds = %errHandle.exit, %118
  %.not7 = icmp eq ptr %94, null
  br i1 %.not7, label %128, label %124

124:                                              ; preds = %unregisterScreenCastCallback.exit
  %125 = load ptr, ptr @gtk, align 8
  %126 = getelementptr inbounds i8, ptr %125, i64 616
  %127 = load ptr, ptr %126, align 8
  call void %127(ptr noundef nonnull %94) #9
  br label %128

128:                                              ; preds = %124, %unregisterScreenCastCallback.exit
  call void @free(ptr noundef %33) #9
  call void @free(ptr noundef %16) #9
  %129 = getelementptr inbounds i8, ptr %3, i64 8
  %130 = load ptr, ptr %129, align 8
  %131 = icmp ne ptr %130, null
  %132 = zext i1 %131 to i32
  ret i32 %132
}